target datalayout = "e-m:e-p270:32:32-p271:32:32-p272:64:64-i64:64-i128:128-f80:128-n8:16:32:64-S128"
target triple = "x86_64-pc-linux-gnu"

%struct.Qureg = type { i32, i32, i32, i64, i64, i32, i32, %struct.ComplexArray, %struct.ComplexArray, %struct.ComplexArray, ptr, ptr, ptr, ptr, ptr, ptr }
%struct.ComplexArray = type { ptr, ptr }
%struct.ComplexMatrixN = type { i32, ptr, ptr }

@__func__.multiQubitUnitary = private unnamed_addr constant [18 x i8] c"multiQubitUnitary\00", align 1
@.str.5 = private unnamed_addr constant [54 x i8] c"Here, an undisclosed multi-qubit unitary was applied.\00", align 1

; Function Attrs: nounwind uwtable
define void @multiQubitUnitary(ptr noundef byval(%struct.Qureg) align 8 %0, ptr noundef %1, i32 noundef %2, ptr noundef byval(%struct.ComplexMatrixN) align 8 %3) #0 {
  %5 = alloca ptr, align 8
  %6 = alloca i32, align 4
  %7 = alloca i32, align 4
  store ptr %1, ptr %5, align 8, !tbaa !27
  store i32 %2, ptr %6, align 4, !tbaa !4
  %8 = load ptr, ptr %5, align 8, !tbaa !27
  %9 = load i32, ptr %6, align 4, !tbaa !4
  call void @validateMultiTargets(ptr noundef byval(%struct.Qureg) align 8 %0, ptr noundef %8, i32 noundef %9, ptr noundef @__func__.multiQubitUnitary)
  %10 = load i32, ptr %6, align 4, !tbaa !4
  call void @validateMultiQubitUnitaryMatrix(ptr noundef byval(%struct.Qureg) align 8 %0, ptr noundef byval(%struct.ComplexMatrixN) align 8 %3, i32 noundef %10, ptr noundef @__func__.multiQubitUnitary)
  %11 = load ptr, ptr %5, align 8, !tbaa !27
  %12 = load i32, ptr %6, align 4, !tbaa !4
  call void @statevec_multiQubitUnitary(ptr noundef byval(%struct.Qureg) align 8 %0, ptr noundef %11, i32 noundef %12, ptr noundef byval(%struct.ComplexMatrixN) align 8 %3)
  %13 = getelementptr inbounds nuw %struct.Qureg, ptr %0, i32 0, i32 0
  %14 = load i32, ptr %13, align 8, !tbaa !13
  %15 = icmp ne i32 %14, 0
  br i1 %15, label %16, label %28

16:                                               ; preds = %4
  call void @llvm.lifetime.start.p0(i64 4, ptr %7) #7
  %17 = getelementptr inbounds nuw %struct.Qureg, ptr %0, i32 0, i32 1
  %18 = load i32, ptr %17, align 4, !tbaa !18
  store i32 %18, ptr %7, align 4, !tbaa !4
  %19 = load ptr, ptr %5, align 8, !tbaa !27
  %20 = load i32, ptr %6, align 4, !tbaa !4
  %21 = load i32, ptr %7, align 4, !tbaa !4
  call void @shiftIndices(ptr noundef %19, i32 noundef %20, i32 noundef %21)
  call void @setConjugateMatrixN(ptr noundef byval(%struct.ComplexMatrixN) align 8 %3)
  %22 = load ptr, ptr %5, align 8, !tbaa !27
  %23 = load i32, ptr %6, align 4, !tbaa !4
  call void @statevec_multiQubitUnitary(ptr noundef byval(%struct.Qureg) align 8 %0, ptr noundef %22, i32 noundef %23, ptr noundef byval(%struct.ComplexMatrixN) align 8 %3)
  %24 = load ptr, ptr %5, align 8, !tbaa !27
  %25 = load i32, ptr %6, align 4, !tbaa !4
  %26 = load i32, ptr %7, align 4, !tbaa !4
  %27 = sub nsw i32 0, %26
  call void @shiftIndices(ptr noundef %24, i32 noundef %25, i32 noundef %27)
  call void @setConjugateMatrixN(ptr noundef byval(%struct.ComplexMatrixN) align 8 %3)
  call void @llvm.lifetime.end.p0(i64 4, ptr %7) #7
  br label %28

28:                                               ; preds = %16, %4
  call void (ptr, ptr, ...) @qasm_recordComment(ptr noundef byval(%struct.Qureg) align 8 %0, ptr noundef @.str.5)
  ret void
}